; Function Attrs: nounwind uwtable
define internal fastcc void @hd_context_shrink_table_size(ptr noundef captures(none) %0, ptr noundef %1) unnamed_addr #0 {
  %3 = getelementptr inbounds nuw i8, ptr %0, i64 32
  %4 = load ptr, ptr %3, align 8, !tbaa !33
  %5 = getelementptr inbounds nuw i8, ptr %0, i64 24
  %6 = getelementptr inbounds nuw i8, ptr %0, i64 40
  %7 = getelementptr inbounds nuw i8, ptr %0, i64 48
  %8 = load i64, ptr %6, align 8, !tbaa !42
  %9 = load i64, ptr %7, align 8, !tbaa !39
  %10 = icmp ugt i64 %8, %9
  br i1 %10, label %.lr.ph24, label %.critedge

.lr.ph24:                                         ; preds = %2
  %11 = getelementptr inbounds nuw i8, ptr %0, i64 16
  %12 = getelementptr inbounds nuw i8, ptr %0, i64 8
  %.not17 = icmp eq ptr %1, null
  br i1 %.not17, label %.lr.ph24.split.us, label %.lr.ph24.split

.lr.ph24.split.us:                                ; preds = %.lr.ph24, %hd_ringbuf_pop_back.exit.us
  %13 = phi i64 [ %33, %hd_ringbuf_pop_back.exit.us ], [ %8, %.lr.ph24 ]
  %14 = load i64, ptr %5, align 8, !tbaa !71
  %.not.us = icmp eq i64 %14, 0
  br i1 %.not.us, label %.critedge, label %hd_ringbuf_pop_back.exit.us

hd_ringbuf_pop_back.exit.us:                      ; preds = %.lr.ph24.split.us
  %15 = add i64 %14, -1
  %16 = load ptr, ptr %0, align 8, !tbaa !40
  %17 = load i64, ptr %11, align 8, !tbaa !63
  %18 = add i64 %17, %15
  %19 = load i64, ptr %12, align 8, !tbaa !41
  %20 = and i64 %18, %19
  %21 = getelementptr inbounds nuw ptr, ptr %16, i64 %20
  %22 = load ptr, ptr %21, align 8, !tbaa !64
  %23 = load ptr, ptr %22, align 8, !tbaa !31
  %24 = getelementptr inbounds nuw i8, ptr %23, i64 24
  %25 = load i64, ptr %24, align 8, !tbaa !22
  %26 = getelementptr inbounds nuw i8, ptr %22, i64 8
  %27 = load ptr, ptr %26, align 8, !tbaa !32
  %28 = getelementptr inbounds nuw i8, ptr %27, i64 24
  %29 = load i64, ptr %28, align 8, !tbaa !22
  %.neg19.us = add i64 %13, -32
  %30 = add i64 %25, %29
  %31 = sub i64 %.neg19.us, %30
  store i64 %31, ptr %6, align 8, !tbaa !42
  store i64 %15, ptr %5, align 8, !tbaa !62
  tail call void @nghttp2_rcbuf_decref(ptr noundef %27) #12
  %32 = load ptr, ptr %22, align 8, !tbaa !31
  tail call void @nghttp2_rcbuf_decref(ptr noundef %32) #12
  tail call void @nghttp2_mem_free(ptr noundef %4, ptr noundef nonnull %22) #12
  %33 = load i64, ptr %6, align 8, !tbaa !42
  %34 = load i64, ptr %7, align 8, !tbaa !39
  %35 = icmp ugt i64 %33, %34
  br i1 %35, label %.lr.ph24.split.us, label %.critedge, !llvm.loop !72

.lr.ph24.split:                                   ; preds = %.lr.ph24, %hd_map_remove.exit
  %36 = phi i64 [ %68, %hd_map_remove.exit ], [ %8, %.lr.ph24 ]
  %37 = load i64, ptr %5, align 8, !tbaa !71
  %.not = icmp eq i64 %37, 0
  br i1 %.not, label %.critedge, label %hd_ringbuf_pop_back.exit

hd_ringbuf_pop_back.exit:                         ; preds = %.lr.ph24.split
  %38 = add i64 %37, -1
  %39 = load ptr, ptr %0, align 8, !tbaa !40
  %40 = load i64, ptr %11, align 8, !tbaa !63
  %41 = add i64 %40, %38
  %42 = load i64, ptr %12, align 8, !tbaa !41
  %43 = and i64 %41, %42
  %44 = getelementptr inbounds nuw ptr, ptr %39, i64 %43
  %45 = load ptr, ptr %44, align 8, !tbaa !64
  %46 = load ptr, ptr %45, align 8, !tbaa !31
  %47 = getelementptr inbounds nuw i8, ptr %46, i64 24
  %48 = load i64, ptr %47, align 8, !tbaa !22
  %49 = getelementptr inbounds nuw i8, ptr %45, i64 8
  %50 = load ptr, ptr %49, align 8, !tbaa !32
  %51 = getelementptr inbounds nuw i8, ptr %50, i64 24
  %52 = load i64, ptr %51, align 8, !tbaa !22
  %.neg19 = add i64 %36, -32
  %53 = add i64 %48, %52
  %54 = sub i64 %.neg19, %53
  store i64 %54, ptr %6, align 8, !tbaa !42
  store i64 %38, ptr %5, align 8, !tbaa !62
  %55 = getelementptr inbounds nuw i8, ptr %45, i64 76
  %56 = load i32, ptr %55, align 4, !tbaa !30
  %57 = and i32 %56, 127
  %58 = zext nneg i32 %57 to i64
  %59 = getelementptr inbounds nuw [128 x ptr], ptr %1, i64 0, i64 %58
  %60 = load ptr, ptr %59, align 8, !tbaa !64
  %.not13.i = icmp eq ptr %60, null
  br i1 %.not13.i, label %hd_map_remove.exit, label %.lr.ph.i.preheader

.lr.ph.i.preheader:                               ; preds = %hd_ringbuf_pop_back.exit
  %.not11.i23 = icmp eq ptr %60, %45
  br i1 %.not11.i23, label %.lr.ph.i._crit_edge, label %.lr.ph

.lr.ph:                                           ; preds = %.lr.ph.i.preheader, %.lr.ph.i
  %61 = phi ptr [ %63, %.lr.ph.i ], [ %60, %.lr.ph.i.preheader ]
  %62 = getelementptr inbounds nuw i8, ptr %61, i64 64
  %63 = load ptr, ptr %62, align 8, !tbaa !64
  %.not.i18 = icmp eq ptr %63, null
  br i1 %.not.i18, label %hd_map_remove.exit, label %.lr.ph.i, !llvm.loop !73

.lr.ph.i:                                         ; preds = %.lr.ph
  %.not11.i = icmp eq ptr %63, %45
  br i1 %.not11.i, label %.lr.ph.i._crit_edge.loopexit, label %.lr.ph, !llvm.loop !73

.lr.ph.i._crit_edge.loopexit:                     ; preds = %.lr.ph.i
  %64 = getelementptr inbounds nuw i8, ptr %61, i64 64
  br label %.lr.ph.i._crit_edge

.lr.ph.i._crit_edge:                              ; preds = %.lr.ph.i._crit_edge.loopexit, %.lr.ph.i.preheader
  %.014.i.lcssa = phi ptr [ %59, %.lr.ph.i.preheader ], [ %64, %.lr.ph.i._crit_edge.loopexit ]
  %65 = getelementptr inbounds nuw i8, ptr %45, i64 64
  %66 = load ptr, ptr %65, align 8, !tbaa !29
  store ptr %66, ptr %.014.i.lcssa, align 8, !tbaa !64
  store ptr null, ptr %65, align 8, !tbaa !29
  br label %hd_map_remove.exit

hd_map_remove.exit:                               ; preds = %.lr.ph, %.lr.ph.i._crit_edge, %hd_ringbuf_pop_back.exit
  tail call void @nghttp2_rcbuf_decref(ptr noundef %50) #12
  %67 = load ptr, ptr %45, align 8, !tbaa !31
  tail call void @nghttp2_rcbuf_decref(ptr noundef %67) #12
  tail call void @nghttp2_mem_free(ptr noundef %4, ptr noundef nonnull %45) #12
  %68 = load i64, ptr %6, align 8, !tbaa !42
  %69 = load i64, ptr %7, align 8, !tbaa !39
  %70 = icmp ugt i64 %68, %69
  br i1 %70, label %.lr.ph24.split, label %.critedge, !llvm.loop !72

.critedge:                                        ; preds = %.lr.ph24.split, %hd_map_remove.exit, %.lr.ph24.split.us, %hd_ringbuf_pop_back.exit.us, %2
  ret void
}